ccopy_reg
_reconstructor
p0
(csklearn.ensemble.weight_boosting
AdaBoostClassifier
p1
c__builtin__
object
p2
Ntp3
Rp4
(dp5
S'base_estimator'
p6
NsS'estimators_'
p7
(lp8
sS'algorithm'
p9
S'SAMME.R'
p10
sS'learning_rate'
p11
I2
sS'n_estimators'
p12
I13
sS'random_state'
p13
NsS'_sklearn_version'
p14
S'0.18.2'
p15
sS'estimator_params'
p16
(tsb.