(dp0
S'METTS MARK'
p1
(dp2
S'to_messages'
p3
I807
sS'deferral_payments'
p4
S'NaN'
p5
sS'share_from_poi_to_this_person'
p6
F0.04708798017348203
sS'expenses'
p7
I94299
sS'poi'
p8
I00
sS'deferred_income'
p9
g5
sS'email_address'
p10
S'mark.metts@enron.com'
p11
sS'long_term_incentive'
p12
g5
sS'share_shared_receipt_with_poi'
p13
F0.8698884758364313
sS'restricted_stock_deferred'
p14
g5
sS'shared_receipt_with_poi'
p15
I702
sS'loan_advances'
p16
g5
sS'from_messages'
p17
I29
sS'other'
p18
I1740
sS'director_fees'
p19
g5
sS'bonus'
p20
I600000
sS'total_stock_value'
p21
I585062
sS'from_poi_to_this_person'
p22
I38
sS'from_this_person_to_poi'
p23
I1
sS'restricted_stock'
p24
I585062
sS'salary'
p25
I365788
sS'share_from_this_person_to_poi'
p26
F0.034482758620689655
sS'total_payments'
p27
I1061827
sS'exercised_stock_options'
p28
g5
ssS'BAXTER JOHN C'
p29
(dp30
g3
g5
sg4
I1295738
sg6
S'NaN'
p31
sg7
I11200
sg8
I00
sg9
I-1386055
sg10
g5
sg12
I1586055
sg13
g31
sg14
g5
sg15
g5
sg16
g5
sg17
g5
sg18
I2660303
sg19
g5
sg20
I1200000
sg21
I10623258
sg22
g5
sg23
g5
sg24
I3942714
sg25
I267102
sg26
g31
sg27
I5634343
sg28
I6680544
ssS'ELLIOTT STEVEN'
p32
(dp33
g3
g5
sg4
g5
sg6
g31
sg7
I78552
sg8
I00
sg9
I-400729
sg10
S'steven.elliott@enron.com'
p34
sg12
g5
sg13
g31
sg14
g5
sg15
g5
sg16
g5
sg17
g5
sg18
I12961
sg19
g5
sg20
I350000
sg21
I6678735
sg22
g5
sg23
g5
sg24
I1788391
sg25
I170941
sg26
g31
sg27
I211725
sg28
I4890344
ssS'CORDES WILLIAM R'
p35
(dp36
g3
I764
sg4
g5
sg6
F0.013089005235602094
sg7
g5
sg8
I00
sg9
g5
sg10
S'bill.cordes@enron.com'
p37
sg12
g5
sg13
F0.07591623036649214
sg14
g5
sg15
I58
sg16
g5
sg17
I12
sg18
g5
sg19
g5
sg20
g5
sg21
I1038185
sg22
I10
sg23
I0
sg24
I386335
sg25
g5
sg26
F0.0
sg27
g5
sg28
I651850
ssS'HANNON KEVIN P'
p38
(dp39
g3
I1045
sg4
g5
sg6
F0.03062200956937799
sg7
I34039
sg8
I01
sg9
I-3117011
sg10
S'kevin.hannon@enron.com'
p40
sg12
I1617011
sg13
F0.9904306220095693
sg14
g5
sg15
I1035
sg16
g5
sg17
I32
sg18
I11350
sg19
g5
sg20
I1500000
sg21
I6391065
sg22
I32
sg23
I21
sg24
I853064
sg25
I243293
sg26
F0.65625
sg27
I288682
sg28
I5538001
ssS'MORDAUNT KRISTINA M'
p41
(dp42
g3
g5
sg4
g5
sg6
g31
sg7
I35018
sg8
I00
sg9
g5
sg10
S'kristina.mordaunt@enron.com'
p43
sg12
g5
sg13
g31
sg14
g5
sg15
g5
sg16
g5
sg17
g5
sg18
I1411
sg19
g5
sg20
I325000
sg21
I208510
sg22
g5
sg23
g5
sg24
I208510
sg25
I267093
sg26
g31
sg27
I628522
sg28
g5
ssS'MEYER ROCKFORD G'
p44
(dp45
g3
I232
sg4
I1848227
sg6
F0.0
sg7
g5
sg8
I00
sg9
g5
sg10
S'rockford.meyer@enron.com'
p46
sg12
g5
sg13
F0.09482758620689655
sg14
g5
sg15
I22
sg16
g5
sg17
I28
sg18
g5
sg19
g5
sg20
g5
sg21
I955873
sg22
I0
sg23
I0
sg24
I462384
sg25
g5
sg26
F0.0
sg27
I1848227
sg28
I493489
ssS'MCMAHON JEFFREY'
p47
(dp48
g3
I2355
sg4
g5
sg6
F0.024628450106157114
sg7
I137108
sg8
I00
sg9
g5
sg10
S'jeffrey.mcmahon@enron.com'
p49
sg12
I694862
sg13
F0.9460721868365181
sg14
g5
sg15
I2228
sg16
g5
sg17
I48
sg18
I297353
sg19
g5
sg20
I2600000
sg21
I1662855
sg22
I58
sg23
I26
sg24
I558801
sg25
I370448
sg26
F0.5416666666666666
sg27
I4099771
sg28
I1104054
ssS'HORTON STANLEY C'
p50
(dp51
g3
I2350
sg4
I3131860
sg6
F0.01872340425531915
sg7
g5
sg8
I00
sg9
g5
sg10
S'stanley.horton@enron.com'
p52
sg12
g5
sg13
F0.4570212765957447
sg14
g5
sg15
I1074
sg16
g5
sg17
I1073
sg18
g5
sg19
g5
sg20
g5
sg21
I7256648
sg22
I44
sg23
I15
sg24
I2046079
sg25
g5
sg26
F0.013979496738117428
sg27
I3131860
sg28
I5210569
ssS'PIPER GREGORY F'
p53
(dp54
g3
I1238
sg4
I1130036
sg6
F0.049273021001615507
sg7
I43057
sg8
I00
sg9
I-33333
sg10
S'greg.piper@enron.com'
p55
sg12
g5
sg13
F0.5993537964458805
sg14
I-409554
sg15
I742
sg16
g5
sg17
I222
sg18
I778
sg19
g5
sg20
I400000
sg21
I880290
sg22
I61
sg23
I48
sg24
I409554
sg25
I197091
sg26
F0.21621621621621623
sg27
I1737629
sg28
I880290
ssS'HUMPHREY GENE E'
p56
(dp57
g3
I128
sg4
I2964506
sg6
F0.078125
sg7
I4994
sg8
I00
sg9
g5
sg10
S'gene.humphrey@enron.com'
p58
sg12
g5
sg13
F0.9296875
sg14
g5
sg15
I119
sg16
g5
sg17
I17
sg18
g5
sg19
g5
sg20
g5
sg21
I2282768
sg22
I10
sg23
I17
sg24
g5
sg25
I130724
sg26
F1.0
sg27
I3100224
sg28
I2282768
ssS'UMANOFF ADAM S'
p59
(dp60
g3
I111
sg4
g5
sg6
F0.10810810810810811
sg7
I53122
sg8
I00
sg9
g5
sg10
S'adam.umanoff@enron.com'
p61
sg12
g5
sg13
F0.36936936936936937
sg14
g5
sg15
I41
sg16
g5
sg17
I18
sg18
g5
sg19
g5
sg20
I788750
sg21
g5
sg22
I12
sg23
I0
sg24
g5
sg25
I288589
sg26
F0.0
sg27
I1130461
sg28
g5
ssS'BLACHMAN JEREMY M'
p62
(dp63
g3
I2475
sg4
g5
sg6
F0.010101010101010102
sg7
I84208
sg8
I00
sg9
g5
sg10
S'jeremy.blachman@enron.com'
p64
sg12
I831809
sg13
F0.9397979797979797
sg14
g5
sg15
I2326
sg16
g5
sg17
I14
sg18
I272
sg19
g5
sg20
I850000
sg21
I954354
sg22
I25
sg23
I2
sg24
I189041
sg25
I248546
sg26
F0.14285714285714285
sg27
I2014835
sg28
I765313
ssS'SUNDE MARTIN'
p65
(dp66
g3
I2647
sg4
g5
sg6
F0.013978088401964487
sg7
g5
sg8
I00
sg9
g5
sg10
S'marty.sunde@enron.com'
p67
sg12
I476451
sg13
F0.9690215338118625
sg14
g5
sg15
I2565
sg16
g5
sg17
I38
sg18
I111122
sg19
g5
sg20
I700000
sg21
I698920
sg22
I37
sg23
I13
sg24
I698920
sg25
I257486
sg26
F0.34210526315789475
sg27
I1545059
sg28
g5
ssS'GIBBS DANA R'
p68
(dp69
g3
I169
sg4
I504610
sg6
F0.0
sg7
g5
sg8
I00
sg9
g5
sg10
S'dana.gibbs@enron.com'
p70
sg12
I461912
sg13
F0.13609467455621302
sg14
g5
sg15
I23
sg16
g5
sg17
I12
sg18
g5
sg19
g5
sg20
g5
sg21
I2218275
sg22
I0
sg23
I0
sg24
g5
sg25
g5
sg26
F0.0
sg27
I966522
sg28
I2218275
ssS'LOWRY CHARLES P'
p71
(dp72
g3
g5
sg4
g5
sg6
g31
sg7
g5
sg8
I00
sg9
g5
sg10
g5
sg12
g5
sg13
g31
sg14
I-153686
sg15
g5
sg16
g5
sg17
g5
sg18
g5
sg19
g5
sg20
g5
sg21
I372205
sg22
g5
sg23
g5
sg24
I153686
sg25
g5
sg26
g31
sg27
g5
sg28
I372205
ssS'COLWELL WESLEY'
p73
(dp74
g3
I1758
sg4
I27610
sg6
F0.13651877133105803
sg7
I16514
sg8
I01
sg9
I-144062
sg10
S'wes.colwell@enron.com'
p75
sg12
g5
sg13
F0.6439135381114903
sg14
g5
sg15
I1132
sg16
g5
sg17
I40
sg18
I101740
sg19
g5
sg20
I1200000
sg21
I698242
sg22
I240
sg23
I11
sg24
I698242
sg25
I288542
sg26
F0.275
sg27
I1490344
sg28
g5
ssS'MULLER MARK S'
p76
(dp77
g3
I136
sg4
I842924
sg6
F0.08823529411764706
sg7
g5
sg8
I00
sg9
I-719000
sg10
S's..muller@enron.com'
p78
sg12
I1725545
sg13
F0.8382352941176471
sg14
g5
sg15
I114
sg16
g5
sg17
I16
sg18
I947
sg19
g5
sg20
I1100000
sg21
I1416848
sg22
I12
sg23
I0
sg24
I360528
sg25
I251654
sg26
F0.0
sg27
I3202070
sg28
I1056320
ssS'JACKSON CHARLENE R'
p79
(dp80
g3
I258
sg4
g5
sg6
F0.09689922480620156
sg7
I10181
sg8
I00
sg9
g5
sg10
S'charlene.jackson@enron.com'
p81
sg12
g5
sg13
F0.45348837209302323
sg14
g5
sg15
I117
sg16
g5
sg17
I56
sg18
I2435
sg19
g5
sg20
I250000
sg21
I725735
sg22
I25
sg23
I19
sg24
I540672
sg25
I288558
sg26
F0.3392857142857143
sg27
I551174
sg28
I185063
ssS'WESTFAHL RICHARD K'
p82
(dp83
g3
g5
sg4
g5
sg6
g31
sg7
I51870
sg8
I00
sg9
I-10800
sg10
S'dick.westfahl@enron.com'
p84
sg12
I256191
sg13
g31
sg14
g5
sg15
g5
sg16
g5
sg17
g5
sg18
I401130
sg19
g5
sg20
g5
sg21
I384930
sg22
g5
sg23
g5
sg24
I384930
sg25
I63744
sg26
g31
sg27
I762135
sg28
g5
ssS'WALTERS GARETH W'
p85
(dp86
g3
g5
sg4
I53625
sg6
g31
sg7
I33785
sg8
I00
sg9
g5
sg10
g5
sg12
g5
sg13
g31
sg14
g5
sg15
g5
sg16
g5
sg17
g5
sg18
g5
sg19
g5
sg20
g5
sg21
I1030329
sg22
g5
sg23
g5
sg24
g5
sg25
g5
sg26
g31
sg27
I87410
sg28
I1030329
ssS'WALLS JR ROBERT H'
p87
(dp88
g3
I671
sg4
g5
sg6
F0.02533532041728763
sg7
I50936
sg8
I00
sg9
g5
sg10
S'rob.walls@enron.com'
p89
sg12
I540751
sg13
F0.3204172876304024
sg14
g5
sg15
I215
sg16
g5
sg17
I146
sg18
I2
sg19
g5
sg20
I850000
sg21
I5898997
sg22
I17
sg23
I0
sg24
I1552453
sg25
I357091
sg26
F0.0
sg27
I1798780
sg28
I4346544
ssS'KITCHEN LOUISE'
p90
(dp91
g3
I8305
sg4
g5
sg6
F0.030222757375075255
sg7
I5774
sg8
I00
sg9
g5
sg10
S'louise.kitchen@enron.com'
p92
sg12
g5
sg13
F0.441782059000602
sg14
g5
sg15
I3669
sg16
g5
sg17
I1728
sg18
I93925
sg19
g5
sg20
I3100000
sg21
I547143
sg22
I251
sg23
I194
sg24
I466101
sg25
I271442
sg26
F0.11226851851851852
sg27
I3471141
sg28
I81042
ssS'CHAN RONNIE'
p93
(dp94
g3
g5
sg4
g5
sg6
g31
sg7
g5
sg8
I00
sg9
I-98784
sg10
g5
sg12
g5
sg13
g31
sg14
I-32460
sg15
g5
sg16
g5
sg17
g5
sg18
g5
sg19
I98784
sg20
g5
sg21
g5
sg22
g5
sg23
g5
sg24
I32460
sg25
g5
sg26
g31
sg27
g5
sg28
g5
ssS'BELFER ROBERT'
p95
(dp96
g3
g5
sg4
I-102500
sg6
g31
sg7
g5
sg8
I00
sg9
g5
sg10
g5
sg12
g5
sg13
g31
sg14
I44093
sg15
g5
sg16
g5
sg17
g5
sg18
g5
sg19
I3285
sg20
g5
sg21
I-44093
sg22
g5
sg23
g5
sg24
g5
sg25
g5
sg26
g31
sg27
I102500
sg28
I3285
ssS'SHANKMAN JEFFREY A'
p97
(dp98
g3
I3221
sg4
g5
sg6
F0.029183483390251473
sg7
I178979
sg8
I00
sg9
g5
sg10
S'jeffrey.shankman@enron.com'
p99
sg12
I554422
sg13
F0.5371002794163303
sg14
g5
sg15
I1730
sg16
g5
sg17
I2681
sg18
I1191
sg19
g5
sg20
I2000000
sg21
I2072035
sg22
I94
sg23
I83
sg24
I630137
sg25
I304110
sg26
F0.030958597538232
sg27
I3038702
sg28
I1441898
ssS'WODRASKA JOHN'
p100
(dp101
g3
g5
sg4
g5
sg6
g31
sg7
g5
sg8
I00
sg9
g5
sg10
S'john.wodraska@enron.com'
p102
sg12
g5
sg13
g31
sg14
g5
sg15
g5
sg16
g5
sg17
g5
sg18
I189583
sg19
g5
sg20
g5
sg21
g5
sg22
g5
sg23
g5
sg24
g5
sg25
g5
sg26
g31
sg27
I189583
sg28
g5
ssS'BERGSIEKER RICHARD P'
p103
(dp104
g3
I383
sg4
g5
sg6
F0.010443864229765013
sg7
I59175
sg8
I00
sg9
I-485813
sg10
S'rick.bergsieker@enron.com'
p105
sg12
I180250
sg13
F0.608355091383812
sg14
g5
sg15
I233
sg16
g5
sg17
I59
sg18
I427316
sg19
g5
sg20
I250000
sg21
I659249
sg22
I4
sg23
I0
sg24
I659249
sg25
I187922
sg26
F0.0
sg27
I618850
sg28
g5
ssS'URQUHART JOHN A'
p106
(dp107
g3
g5
sg4
g5
sg6
g31
sg7
I228656
sg8
I00
sg9
I-36666
sg10
g5
sg12
g5
sg13
g31
sg14
g5
sg15
g5
sg16
g5
sg17
g5
sg18
g5
sg19
I36666
sg20
g5
sg21
g5
sg22
g5
sg23
g5
sg24
g5
sg25
g5
sg26
g31
sg27
I228656
sg28
g5
ssS'BIBI PHILIPPE A'
p108
(dp109
g3
I1607
sg4
g5
sg6
F0.01431238332296204
sg7
I38559
sg8
I00
sg9
g5
sg10
S'philippe.bibi@enron.com'
p110
sg12
I369721
sg13
F0.8313627878033603
sg14
g5
sg15
I1336
sg16
g5
sg17
I40
sg18
I425688
sg19
g5
sg20
I1000000
sg21
I1843816
sg22
I23
sg23
I8
sg24
I378082
sg25
I213625
sg26
F0.2
sg27
I2047593
sg28
I1465734
ssS'RIEKER PAULA H'
p111
(dp112
g3
I1328
sg4
I214678
sg6
F0.02635542168674699
sg7
I33271
sg8
I01
sg9
I-100000
sg10
S'paula.rieker@enron.com'
p113
sg12
g5
sg13
F0.947289156626506
sg14
g5
sg15
I1258
sg16
g5
sg17
I82
sg18
I1950
sg19
g5
sg20
I700000
sg21
I1918887
sg22
I35
sg23
I48
sg24
I283649
sg25
I249201
sg26
F0.5853658536585366
sg27
I1099100
sg28
I1635238
ssS'WHALEY DAVID A'
p114
(dp115
g3
g5
sg4
g5
sg6
g31
sg7
g5
sg8
I00
sg9
g5
sg10
g5
sg12
g5
sg13
g31
sg14
g5
sg15
g5
sg16
g5
sg17
g5
sg18
g5
sg19
g5
sg20
g5
sg21
I98718
sg22
g5
sg23
g5
sg24
g5
sg25
g5
sg26
g31
sg27
g5
sg28
I98718
ssS'BECK SALLY W'
p116
(dp117
g3
I7315
sg4
g5
sg6
F0.01968557758031442
sg7
I37172
sg8
I00
sg9
g5
sg10
S'sally.beck@enron.com'
p118
sg12
g5
sg13
F0.36076555023923446
sg14
g5
sg15
I2639
sg16
g5
sg17
I4343
sg18
I566
sg19
g5
sg20
I700000
sg21
I126027
sg22
I144
sg23
I386
sg24
I126027
sg25
I231330
sg26
F0.08887865530739121
sg27
I969068
sg28
g5
ssS'HAUG DAVID L'
p119
(dp120
g3
I573
sg4
g5
sg6
F0.006980802792321117
sg7
I475
sg8
I00
sg9
g5
sg10
S'david.haug@enron.com'
p121
sg12
g5
sg13
F0.8219895287958116
sg14
g5
sg15
I471
sg16
g5
sg17
I19
sg18
g5
sg19
g5
sg20
g5
sg21
I2217299
sg22
I4
sg23
I7
sg24
I2217299
sg25
g5
sg26
F0.3684210526315789
sg27
I475
sg28
g5
ssS'ECHOLS JOHN B'
p122
(dp123
g3
g5
sg4
g5
sg6
g31
sg7
I21530
sg8
I00
sg9
g5
sg10
S'john.echols@enron.com'
p124
sg12
I2234774
sg13
g31
sg14
g5
sg15
g5
sg16
g5
sg17
g5
sg18
I53775
sg19
g5
sg20
I200000
sg21
I1008941
sg22
g5
sg23
g5
sg24
I407503
sg25
I182245
sg26
g31
sg27
I2692324
sg28
I601438
ssS'MENDELSOHN JOHN'
p125
(dp126
g3
g5
sg4
g5
sg6
g31
sg7
I148
sg8
I00
sg9
I-103750
sg10
g5
sg12
g5
sg13
g31
sg14
g5
sg15
g5
sg16
g5
sg17
g5
sg18
g5
sg19
I103750
sg20
g5
sg21
g5
sg22
g5
sg23
g5
sg24
g5
sg25
g5
sg26
g31
sg27
I148
sg28
g5
ssS'HICKERSON GARY J'
p127
(dp128
g3
I1320
sg4
g5
sg6
F0.030303030303030304
sg7
I98849
sg8
I00
sg9
g5
sg10
S'gary.hickerson@enron.com'
p129
sg12
I69223
sg13
F0.6818181818181818
sg14
g5
sg15
I900
sg16
g5
sg17
I27
sg18
I1936
sg19
g5
sg20
I1700000
sg21
I441096
sg22
I40
sg23
I1
sg24
I441096
sg25
I211788
sg26
F0.037037037037037035
sg27
I2081796
sg28
g5
ssS'CLINE KENNETH W'
p130
(dp131
g3
g5
sg4
g5
sg6
g31
sg7
g5
sg8
I00
sg9
g5
sg10
g5
sg12
g5
sg13
g31
sg14
I-472568
sg15
g5
sg16
g5
sg17
g5
sg18
g5
sg19
g5
sg20
g5
sg21
I189518
sg22
g5
sg23
g5
sg24
I662086
sg25
g5
sg26
g31
sg27
g5
sg28
g5
ssS'LEWIS RICHARD'
p132
(dp133
g3
I952
sg4
g5
sg6
F0.01050420168067227
sg7
g5
sg8
I00
sg9
g5
sg10
S'richard.lewis@enron.com'
p134
sg12
g5
sg13
F0.7762605042016807
sg14
g5
sg15
I739
sg16
g5
sg17
I26
sg18
g5
sg19
g5
sg20
g5
sg21
I850477
sg22
I10
sg23
I0
sg24
g5
sg25
g5
sg26
F0.0
sg27
g5
sg28
I850477
ssS'HAYES ROBERT E'
p135
(dp136
g3
I504
sg4
I7961
sg6
F0.031746031746031744
sg7
g5
sg8
I00
sg9
g5
sg10
S'robert.hayes@enron.com'
p137
sg12
g5
sg13
F0.0992063492063492
sg14
g5
sg15
I50
sg16
g5
sg17
I12
sg18
g5
sg19
g5
sg20
g5
sg21
I151418
sg22
I16
sg23
I0
sg24
I151418
sg25
g5
sg26
F0.0
sg27
I7961
sg28
g5
ssS'MCCARTY DANNY J'
p138
(dp139
g3
I1433
sg4
g5
sg6
F0.017445917655268667
sg7
g5
sg8
I00
sg9
g5
sg10
S'danny.mccarty@enron.com'
p140
sg12
g5
sg13
F0.35450104675505933
sg14
g5
sg15
I508
sg16
g5
sg17
I215
sg18
g5
sg19
g5
sg20
g5
sg21
I758931
sg22
I25
sg23
I2
sg24
I94556
sg25
g5
sg26
F0.009302325581395349
sg27
g5
sg28
I664375
ssS'KOPPER MICHAEL J'
p141
(dp142
g3
g5
sg4
g5
sg6
g31
sg7
I118134
sg8
I01
sg9
g5
sg10
S'michael.kopper@enron.com'
p143
sg12
I602671
sg13
g31
sg14
g5
sg15
g5
sg16
g5
sg17
g5
sg18
I907502
sg19
g5
sg20
I800000
sg21
I985032
sg22
g5
sg23
g5
sg24
I985032
sg25
I224305
sg26
g31
sg27
I2652612
sg28
g5
ssS'LEFF DANIEL P'
p144
(dp145
g3
I2822
sg4
g5
sg6
F0.02374202693125443
sg7
g5
sg8
I00
sg9
g5
sg10
S'dan.leff@enron.com'
p146
sg12
I1387399
sg13
F0.9468462083628633
sg14
g5
sg15
I2672
sg16
g5
sg17
I63
sg18
I3083
sg19
g5
sg20
I1000000
sg21
I360528
sg22
I67
sg23
I14
sg24
I360528
sg25
I273746
sg26
F0.2222222222222222
sg27
I2664228
sg28
g5
ssS'LAVORATO JOHN J'
p147
(dp148
g3
I7259
sg4
g5
sg6
F0.07273729163796666
sg7
I49537
sg8
I00
sg9
g5
sg10
S'john.lavorato@enron.com'
p149
sg12
I2035380
sg13
F0.5458052073288332
sg14
g5
sg15
I3962
sg16
g5
sg17
I2585
sg18
I1552
sg19
g5
sg20
I8000000
sg21
I5167144
sg22
I528
sg23
I411
sg24
I1008149
sg25
I339288
sg26
F0.15899419729206962
sg27
I10425757
sg28
I4158995
ssS'BERBERIAN DAVID'
p150
(dp151
g3
g5
sg4
g5
sg6
g31
sg7
I11892
sg8
I00
sg9
g5
sg10
S'david.berberian@enron.com'
p152
sg12
g5
sg13
g31
sg14
g5
sg15
g5
sg16
g5
sg17
g5
sg18
g5
sg19
g5
sg20
g5
sg21
I2493616
sg22
g5
sg23
g5
sg24
I869220
sg25
I216582
sg26
g31
sg27
I228474
sg28
I1624396
ssS'DETMERING TIMOTHY J'
p153
(dp154
g3
g5
sg4
I875307
sg6
g31
sg7
I52255
sg8
I00
sg9
I-775241
sg10
S'timothy.detmering@enron.com'
p155
sg12
I415657
sg13
g31
sg14
I-315068
sg15
g5
sg16
g5
sg17
g5
sg18
I1105
sg19
g5
sg20
I425000
sg21
I2027865
sg22
g5
sg23
g5
sg24
I315068
sg25
I210500
sg26
g31
sg27
I1204583
sg28
I2027865
ssS'WAKEHAM JOHN'
p156
(dp157
g3
g5
sg4
g5
sg6
g31
sg7
I103773
sg8
I00
sg9
g5
sg10
g5
sg12
g5
sg13
g31
sg14
g5
sg15
g5
sg16
g5
sg17
g5
sg18
g5
sg19
I109298
sg20
g5
sg21
g5
sg22
g5
sg23
g5
sg24
g5
sg25
g5
sg26
g31
sg27
I213071
sg28
g5
ssS'POWERS WILLIAM'
p158
(dp159
g3
I653
sg4
g5
sg6
F0.0
sg7
g5
sg8
I00
sg9
I-17500
sg10
S'ken.powers@enron.com'
p160
sg12
g5
sg13
F0.018376722817764167
sg14
g5
sg15
I12
sg16
g5
sg17
I26
sg18
g5
sg19
I17500
sg20
g5
sg21
g5
sg22
I0
sg23
I0
sg24
g5
sg25
g5
sg26
F0.0
sg27
g5
sg28
g5
ssS'GOLD JOSEPH'
p161
(dp162
g3
g5
sg4
g5
sg6
g31
sg7
g5
sg8
I00
sg9
g5
sg10
S'joe.gold@enron.com'
p163
sg12
I304805
sg13
g31
sg14
g5
sg15
g5
sg16
g5
sg17
g5
sg18
I819288
sg19
g5
sg20
I750000
sg21
I877611
sg22
g5
sg23
g5
sg24
I441096
sg25
I272880
sg26
g31
sg27
I2146973
sg28
I436515
ssS'BANNANTINE JAMES M'
p164
(dp165
g3
I566
sg4
g5
sg6
F0.06890459363957598
sg7
I56301
sg8
I00
sg9
I-5104
sg10
S'james.bannantine@enron.com'
p166
sg12
g5
sg13
F0.8215547703180212
sg14
I-560222
sg15
I465
sg16
g5
sg17
I29
sg18
I864523
sg19
g5
sg20
g5
sg21
I5243487
sg22
I39
sg23
I0
sg24
I1757552
sg25
I477
sg26
F0.0
sg27
I916197
sg28
I4046157
ssS'DUNCAN JOHN H'
p167
(dp168
g3
g5
sg4
g5
sg6
g31
sg7
g5
sg8
I00
sg9
I-25000
sg10
g5
sg12
g5
sg13
g31
sg14
g5
sg15
g5
sg16
g5
sg17
g5
sg18
g5
sg19
I102492
sg20
g5
sg21
I371750
sg22
g5
sg23
g5
sg24
g5
sg25
g5
sg26
g31
sg27
I77492
sg28
I371750
ssS'SHAPIRO RICHARD S'
p169
(dp170
g3
I15149
sg4
g5
sg6
F0.0048848108786058485
sg7
I137767
sg8
I00
sg9
g5
sg10
S'richard.shapiro@enron.com'
p171
sg12
g5
sg13
F0.29883160604660375
sg14
g5
sg15
I4527
sg16
g5
sg17
I1215
sg18
I705
sg19
g5
sg20
I650000
sg21
I987001
sg22
I74
sg23
I65
sg24
I379164
sg25
I269076
sg26
F0.053497942386831275
sg27
I1057548
sg28
I607837
ssS'SHERRIFF JOHN R'
p172
(dp173
g3
I3187
sg4
g5
sg6
F0.008785691873235017
sg7
g5
sg8
I00
sg9
g5
sg10
S'john.sherriff@enron.com'
p174
sg12
I554422
sg13
F0.6598682146219015
sg14
g5
sg15
I2103
sg16
g5
sg17
I92
sg18
I1852186
sg19
g5
sg20
I1500000
sg21
I3128982
sg22
I28
sg23
I23
sg24
I1293424
sg25
I428780
sg26
F0.25
sg27
I4335388
sg28
I1835558
ssS'SHELBY REX'
p175
(dp176
g3
I225
sg4
g5
sg6
F0.057777777777777775
sg7
I22884
sg8
I01
sg9
I-4167
sg10
S'rex.shelby@enron.com'
p177
sg12
g5
sg13
F0.40444444444444444
sg14
g5
sg15
I91
sg16
g5
sg17
I39
sg18
I1573324
sg19
g5
sg20
I200000
sg21
I2493616
sg22
I13
sg23
I14
sg24
I869220
sg25
I211844
sg26
F0.358974358974359
sg27
I2003885
sg28
I1624396
ssS'LEMAISTRE CHARLES'
p178
(dp179
g3
g5
sg4
g5
sg6
g31
sg7
g5
sg8
I00
sg9
I-25000
sg10
g5
sg12
g5
sg13
g31
sg14
g5
sg15
g5
sg16
g5
sg17
g5
sg18
g5
sg19
I112492
sg20
g5
sg21
I412878
sg22
g5
sg23
g5
sg24
g5
sg25
g5
sg26
g31
sg27
I87492
sg28
I412878
ssS'DEFFNER JOSEPH M'
p180
(dp181
g3
I714
sg4
g5
sg6
F0.16106442577030813
sg7
I41626
sg8
I00
sg9
g5
sg10
S'joseph.deffner@enron.com'
p182
sg12
I335349
sg13
F0.773109243697479
sg14
g5
sg15
I552
sg16
g5
sg17
I74
sg18
I25553
sg19
g5
sg20
I600000
sg21
I159211
sg22
I115
sg23
I4
sg24
I141833
sg25
I206121
sg26
F0.05405405405405406
sg27
I1208649
sg28
I17378
ssS'KISHKILL JOSEPH G'
p183
(dp184
g3
g5
sg4
g5
sg6
g31
sg7
I116335
sg8
I00
sg9
I-51042
sg10
S'joe.kishkill@enron.com'
p185
sg12
g5
sg13
g31
sg14
g5
sg15
g5
sg16
g5
sg17
g5
sg18
I465357
sg19
g5
sg20
g5
sg21
I1034346
sg22
g5
sg23
g5
sg24
I1034346
sg25
I174246
sg26
g31
sg27
I704896
sg28
g5
ssS'WHALLEY LAWRENCE G'
p186
(dp187
g3
I6019
sg4
g5
sg6
F0.03090214321315833
sg7
I57838
sg8
I00
sg9
g5
sg10
S'greg.whalley@enron.com'
p188
sg12
I808346
sg13
F0.6512709752450573
sg14
g5
sg15
I3920
sg16
g5
sg17
I556
sg18
I301026
sg19
g5
sg20
I3000000
sg21
I6079137
sg22
I186
sg23
I24
sg24
I2796177
sg25
I510364
sg26
F0.04316546762589928
sg27
I4677574
sg28
I3282960
ssS'MCCONNELL MICHAEL S'
p189
(dp190
g3
I3329
sg4
g5
sg6
F0.02763592670471613
sg7
I81364
sg8
I00
sg9
g5
sg10
S'mike.mcconnell@enron.com'
p191
sg12
I554422
sg13
F0.657554821267648
sg14
g5
sg15
I2189
sg16
g5
sg17
I2742
sg18
I540
sg19
g5
sg20
I1100000
sg21
I3101279
sg22
I92
sg23
I194
sg24
I1478269
sg25
I365038
sg26
F0.07075127644055434
sg27
I2101364
sg28
I1623010
ssS'PIRO JIM'
p192
(dp193
g3
I58
sg4
g5
sg6
F0.0
sg7
g5
sg8
I00
sg9
g5
sg10
S'jim.piro@enron.com'
p194
sg12
g5
sg13
F0.05172413793103448
sg14
g5
sg15
I3
sg16
g5
sg17
I16
sg18
g5
sg19
g5
sg20
g5
sg21
I47304
sg22
I0
sg23
I1
sg24
I47304
sg25
g5
sg26
F0.0625
sg27
g5
sg28
g5
ssS'DELAINEY DAVID W'
p195
(dp196
g3
I3093
sg4
g5
sg6
F0.02133850630455868
sg7
I86174
sg8
I01
sg9
g5
sg10
S'david.delainey@enron.com'
p197
sg12
I1294981
sg13
F0.6779825412221144
sg14
g5
sg15
I2097
sg16
g5
sg17
I3069
sg18
I1661
sg19
g5
sg20
I3000000
sg21
I3614261
sg22
I66
sg23
I609
sg24
I1323148
sg25
I365163
sg26
F0.198435972629521
sg27
I4747979
sg28
I2291113
ssS'SULLIVAN-SHAKLOVITZ COLLEEN'
p198
(dp199
g3
g5
sg4
I181993
sg6
g31
sg7
g5
sg8
I00
sg9
g5
sg10
g5
sg12
I554422
sg13
g31
sg14
g5
sg15
g5
sg16
g5
sg17
g5
sg18
I162
sg19
g5
sg20
I100000
sg21
I1362375
sg22
g5
sg23
g5
sg24
g5
sg25
I162779
sg26
g31
sg27
I999356
sg28
I1362375
ssS'WROBEL BRUCE'
p200
(dp201
g3
g5
sg4
g5
sg6
g31
sg7
g5
sg8
I00
sg9
g5
sg10
g5
sg12
g5
sg13
g31
sg14
g5
sg15
g5
sg16
g5
sg17
g5
sg18
g5
sg19
g5
sg20
g5
sg21
I139130
sg22
g5
sg23
g5
sg24
g5
sg25
g5
sg26
g31
sg27
g5
sg28
I139130
ssS'LINDHOLM TOD A'
p202
(dp203
g3
g5
sg4
I204075
sg6
g31
sg7
I57727
sg8
I00
sg9
g5
sg10
S'tod.lindholm@enron.com'
p204
sg12
I175000
sg13
g31
sg14
g5
sg15
g5
sg16
g5
sg17
g5
sg18
I2630
sg19
g5
sg20
I200000
sg21
I3064208
sg22
g5
sg23
g5
sg24
I514847
sg25
I236457
sg26
g31
sg27
I875889
sg28
I2549361
ssS'MEYER JEROME J'
p205
(dp206
g3
g5
sg4
g5
sg6
g31
sg7
I2151
sg8
I00
sg9
I-38346
sg10
g5
sg12
g5
sg13
g31
sg14
g5
sg15
g5
sg16
g5
sg17
g5
sg18
g5
sg19
I38346
sg20
g5
sg21
g5
sg22
g5
sg23
g5
sg24
g5
sg25
g5
sg26
g31
sg27
I2151
sg28
g5
ssS'LAY KENNETH L'
p207
(dp208
g3
I4273
sg4
I202911
sg6
F0.028785396676807865
sg7
I99832
sg8
I01
sg9
I-300000
sg10
S'kenneth.lay@enron.com'
p209
sg12
I3600000
sg13
F0.5642405803884858
sg14
g5
sg15
I2411
sg16
I81525000
sg17
I36
sg18
I10359729
sg19
g5
sg20
I7000000
sg21
I49110078
sg22
I123
sg23
I16
sg24
I14761694
sg25
I1072321
sg26
F0.4444444444444444
sg27
I103559793
sg28
I34348384
ssS'BUTTS ROBERT H'
p210
(dp211
g3
g5
sg4
g5
sg6
g31
sg7
I9410
sg8
I00
sg9
I-75000
sg10
S'bob.butts@enron.com'
p212
sg12
I175000
sg13
g31
sg14
g5
sg15
g5
sg16
g5
sg17
g5
sg18
I150656
sg19
g5
sg20
I750000
sg21
I417619
sg22
g5
sg23
g5
sg24
I417619
sg25
I261516
sg26
g31
sg27
I1271582
sg28
g5
ssS'OLSON CINDY K'
p213
(dp214
g3
I1184
sg4
I77716
sg6
F0.016891891891891893
sg7
I63791
sg8
I00
sg9
g5
sg10
S'cindy.olson@enron.com'
p215
sg12
I100000
sg13
F0.722972972972973
sg14
g5
sg15
I856
sg16
g5
sg17
I52
sg18
I972
sg19
g5
sg20
I750000
sg21
I2606763
sg22
I20
sg23
I15
sg24
I969729
sg25
I329078
sg26
F0.28846153846153844
sg27
I1321557
sg28
I1637034
ssS'MCDONALD REBECCA'
p216
(dp217
g3
I894
sg4
g5
sg6
F0.06040268456375839
sg7
g5
sg8
I00
sg9
g5
sg10
S'rebecca.mcdonald@enron.com'
p218
sg12
g5
sg13
F0.8053691275167785
sg14
g5
sg15
I720
sg16
g5
sg17
I13
sg18
g5
sg19
g5
sg20
g5
sg21
I1691366
sg22
I54
sg23
I1
sg24
I934065
sg25
g5
sg26
F0.07692307692307693
sg27
g5
sg28
I757301
ssS'CUMBERLAND MICHAEL S'
p219
(dp220
g3
g5
sg4
g5
sg6
g31
sg7
I22344
sg8
I00
sg9
g5
sg10
g5
sg12
I275000
sg13
g31
sg14
g5
sg15
g5
sg16
g5
sg17
g5
sg18
I713
sg19
g5
sg20
I325000
sg21
I207940
sg22
g5
sg23
g5
sg24
I207940
sg25
I184899
sg26
g31
sg27
I807956
sg28
g5
ssS'GAHN ROBERT S'
p221
(dp222
g3
g5
sg4
I73122
sg6
g31
sg7
I50080
sg8
I00
sg9
I-1042
sg10
g5
sg12
g5
sg13
g31
sg14
g5
sg15
g5
sg16
g5
sg17
g5
sg18
I76547
sg19
g5
sg20
I509870
sg21
I318607
sg22
g5
sg23
g5
sg24
I235370
sg25
I192008
sg26
g31
sg27
I900585
sg28
I83237
ssS'MCCLELLAN GEORGE'
p223
(dp224
g3
I1744
sg4
g5
sg6
F0.02981651376146789
sg7
I228763
sg8
I00
sg9
I-125000
sg10
S'george.mcclellan@enron.com'
p225
sg12
g5
sg13
F0.8423165137614679
sg14
g5
sg15
I1469
sg16
g5
sg17
I49
sg18
I51587
sg19
g5
sg20
I900000
sg21
I947861
sg22
I52
sg23
I0
sg24
I441096
sg25
I263413
sg26
F0.0
sg27
I1318763
sg28
I506765
ssS'HERMANN ROBERT J'
p226
(dp227
g3
g5
sg4
g5
sg6
g31
sg7
I48357
sg8
I00
sg9
I-280000
sg10
S'robert.hermann@enron.com'
p228
sg12
I150000
sg13
g31
sg14
g5
sg15
g5
sg16
g5
sg17
g5
sg18
I416441
sg19
g5
sg20
I700000
sg21
I668132
sg22
g5
sg23
g5
sg24
I480632
sg25
I262663
sg26
g31
sg27
I1297461
sg28
I187500
ssS'SCRIMSHAW MATTHEW'
p229
(dp230
g3
g5
sg4
g5
sg6
g31
sg7
g5
sg8
I00
sg9
g5
sg10
S'matthew.scrimshaw@enron.com'
p231
sg12
g5
sg13
g31
sg14
g5
sg15
g5
sg16
g5
sg17
g5
sg18
g5
sg19
g5
sg20
g5
sg21
I759557
sg22
g5
sg23
g5
sg24
g5
sg25
g5
sg26
g31
sg27
g5
sg28
I759557
ssS'GATHMANN WILLIAM D'
p232
(dp233
g3
g5
sg4
g5
sg6
g31
sg7
g5
sg8
I00
sg9
g5
sg10
g5
sg12
g5
sg13
g31
sg14
I-72419
sg15
g5
sg16
g5
sg17
g5
sg18
g5
sg19
g5
sg20
g5
sg21
I1945360
sg22
g5
sg23
g5
sg24
I264013
sg25
g5
sg26
g31
sg27
g5
sg28
I1753766
ssS'HAEDICKE MARK E'
p234
(dp235
g3
I4009
sg4
I2157527
sg6
F0.04489897730107259
sg7
I76169
sg8
I00
sg9
I-934484
sg10
S'mark.haedicke@enron.com'
p236
sg12
I983346
sg13
F0.4607133948615615
sg14
I-329825
sg15
I1847
sg16
g5
sg17
I1941
sg18
I52382
sg19
g5
sg20
I1150000
sg21
I803094
sg22
I180
sg23
I61
sg24
I524169
sg25
I374125
sg26
F0.03142709943328181
sg27
I3859065
sg28
I608750
ssS'BOWEN JR RAYMOND M'
p237
(dp238
g3
I1858
sg4
g5
sg6
F0.07534983853606028
sg7
I65907
sg8
I01
sg9
I-833
sg10
S'raymond.bowen@enron.com'
p239
sg12
I974293
sg13
F0.8573735199138859
sg14
g5
sg15
I1593
sg16
g5
sg17
I27
sg18
I1621
sg19
g5
sg20
I1350000
sg21
I252055
sg22
I140
sg23
I15
sg24
I252055
sg25
I278601
sg26
F0.5555555555555556
sg27
I2669589
sg28
g5
ssS'GILLIS JOHN'
p240
(dp241
g3
g5
sg4
g5
sg6
g31
sg7
g5
sg8
I00
sg9
g5
sg10
g5
sg12
g5
sg13
g31
sg14
g5
sg15
g5
sg16
g5
sg17
g5
sg18
g5
sg19
g5
sg20
g5
sg21
I85641
sg22
g5
sg23
g5
sg24
I75838
sg25
g5
sg26
g31
sg27
g5
sg28
I9803
ssS'FITZGERALD JAY L'
p242
(dp243
g3
I936
sg4
g5
sg6
F0.0010683760683760685
sg7
I23870
sg8
I00
sg9
g5
sg10
S'jay.fitzgerald@enron.com'
p244
sg12
I556416
sg13
F0.7724358974358975
sg14
g5
sg15
I723
sg16
g5
sg17
I16
sg18
I285414
sg19
g5
sg20
I350000
sg21
I1621236
sg22
I1
sg23
I8
sg24
I956775
sg25
I199157
sg26
F0.5
sg27
I1414857
sg28
I664461
ssS'MORAN MICHAEL P'
p245
(dp246
g3
I672
sg4
g5
sg6
F0.0
sg7
g5
sg8
I00
sg9
g5
sg10
S'michael.moran@enron.com'
p247
sg12
g5
sg13
F0.18898809523809523
sg14
g5
sg15
I127
sg16
g5
sg17
I19
sg18
g5
sg19
g5
sg20
g5
sg21
I221141
sg22
I0
sg23
I0
sg24
I161602
sg25
g5
sg26
F0.0
sg27
g5
sg28
I59539
ssS'REDMOND BRIAN L'
p248
(dp249
g3
I1671
sg4
g5
sg6
F0.12208258527827648
sg7
I14689
sg8
I00
sg9
g5
sg10
S'brian.redmond@enron.com'
p250
sg12
g5
sg13
F0.6361460203470976
sg14
g5
sg15
I1063
sg16
g5
sg17
I221
sg18
g5
sg19
g5
sg20
g5
sg21
I7890324
sg22
I204
sg23
I49
sg24
I381285
sg25
I96840
sg26
F0.22171945701357465
sg27
I111529
sg28
I7509039
ssS'BAZELIDES PHILIP J'
p251
(dp252
g3
g5
sg4
I684694
sg6
g31
sg7
g5
sg8
I00
sg9
g5
sg10
g5
sg12
I93750
sg13
g31
sg14
g5
sg15
g5
sg16
g5
sg17
g5
sg18
I874
sg19
g5
sg20
g5
sg21
I1599641
sg22
g5
sg23
g5
sg24
g5
sg25
I80818
sg26
g31
sg27
I860136
sg28
I1599641
ssS'BELDEN TIMOTHY N'
p253
(dp254
g3
I7991
sg4
I2144013
sg6
F0.028532098610937303
sg7
I17355
sg8
I01
sg9
I-2334434
sg10
S'tim.belden@enron.com'
p255
sg12
g5
sg13
F0.6909022650481792
sg14
g5
sg15
I5521
sg16
g5
sg17
I484
sg18
I210698
sg19
g5
sg20
I5249999
sg21
I1110705
sg22
I228
sg23
I108
sg24
I157569
sg25
I213999
sg26
F0.2231404958677686
sg27
I5501630
sg28
I953136
ssS'DURAN WILLIAM D'
p256
(dp257
g3
I904
sg4
g5
sg6
F0.1172566371681416
sg7
I25785
sg8
I00
sg9
g5
sg10
S'w.duran@enron.com'
p258
sg12
I1105218
sg13
F0.6626106194690266
sg14
g5
sg15
I599
sg16
g5
sg17
I12
sg18
I1568
sg19
g5
sg20
I750000
sg21
I1640910
sg22
I106
sg23
I3
sg24
I189041
sg25
I210692
sg26
F0.25
sg27
I2093263
sg28
I1451869
ssS'THORN TERENCE H'
p259
(dp260
g3
I266
sg4
I16586
sg6
F0.0
sg7
I46145
sg8
I00
sg9
g5
sg10
S'terence.thorn@enron.com'
p261
sg12
I200000
sg13
F0.2744360902255639
sg14
g5
sg15
I73
sg16
g5
sg17
I41
sg18
I426629
sg19
g5
sg20
g5
sg21
I4817796
sg22
I0
sg23
I0
sg24
I365320
sg25
I222093
sg26
F0.0
sg27
I911453
sg28
I4452476
ssS'FASTOW ANDREW S'
p262
(dp263
g3
g5
sg4
g5
sg6
g31
sg7
I55921
sg8
I01
sg9
I-1386055
sg10
S'andrew.fastow@enron.com'
p264
sg12
I1736055
sg13
g31
sg14
g5
sg15
g5
sg16
g5
sg17
g5
sg18
I277464
sg19
g5
sg20
I1300000
sg21
I1794412
sg22
g5
sg23
g5
sg24
I1794412
sg25
I440698
sg26
g31
sg27
I2424083
sg28
g5
ssS'FOY JOE'
p265
(dp266
g3
I57
sg4
I181755
sg6
F0.0
sg7
g5
sg8
I00
sg9
g5
sg10
S'tracy.foy@enron.com'
p267
sg12
g5
sg13
F0.03508771929824561
sg14
g5
sg15
I2
sg16
g5
sg17
I13
sg18
g5
sg19
g5
sg20
g5
sg21
I343434
sg22
I0
sg23
I0
sg24
g5
sg25
g5
sg26
F0.0
sg27
I181755
sg28
I343434
ssS'CALGER CHRISTOPHER F'
p268
(dp269
g3
I2598
sg4
g5
sg6
F0.07659738260200154
sg7
I35818
sg8
I01
sg9
I-262500
sg10
S'christopher.calger@enron.com'
p270
sg12
I375304
sg13
F0.8421862971516552
sg14
g5
sg15
I2188
sg16
g5
sg17
I144
sg18
I486
sg19
g5
sg20
I1250000
sg21
I126027
sg22
I199
sg23
I25
sg24
I126027
sg25
I240189
sg26
F0.1736111111111111
sg27
I1639297
sg28
g5
ssS'RICE KENNETH D'
p271
(dp272
g3
I905
sg4
g5
sg6
F0.04640883977900553
sg7
I46950
sg8
I01
sg9
I-3504386
sg10
S'ken.rice@enron.com'
p273
sg12
I1617011
sg13
F0.9546961325966851
sg14
g5
sg15
I864
sg16
g5
sg17
I18
sg18
I174839
sg19
g5
sg20
I1750000
sg21
I22542539
sg22
I42
sg23
I4
sg24
I2748364
sg25
I420636
sg26
F0.2222222222222222
sg27
I505050
sg28
I19794175
ssS'KAMINSKI WINCENTY J'
p274
(dp275
g3
I4607
sg4
g5
sg6
F0.008899500759713479
sg7
I83585
sg8
I00
sg9
g5
sg10
S'vince.kaminski@enron.com'
p276
sg12
I323466
sg13
F0.1265465595832429
sg14
g5
sg15
I583
sg16
g5
sg17
I14368
sg18
I4669
sg19
g5
sg20
I400000
sg21
I976037
sg22
I41
sg23
I171
sg24
I126027
sg25
I275101
sg26
F0.011901447661469933
sg27
I1086821
sg28
I850010
ssS'COX DAVID'
p277
(dp278
g3
I102
sg4
g5
sg6
F0.0
sg7
I27861
sg8
I00
sg9
I-41250
sg10
S'chip.cox@enron.com'
p279
sg12
g5
sg13
F0.696078431372549
sg14
g5
sg15
I71
sg16
g5
sg17
I33
sg18
I494
sg19
g5
sg20
I800000
sg21
I495633
sg22
I0
sg23
I4
sg24
I378082
sg25
I314288
sg26
F0.12121212121212122
sg27
I1101393
sg28
I117551
ssS'OVERDYKE JR JERE C'
p280
(dp281
g3
g5
sg4
g5
sg6
g31
sg7
I18834
sg8
I00
sg9
g5
sg10
S'jere.overdyke@enron.com'
p282
sg12
I135836
sg13
g31
sg14
g5
sg15
g5
sg16
g5
sg17
g5
sg18
I176
sg19
g5
sg20
g5
sg21
I7307594
sg22
g5
sg23
g5
sg24
I2041016
sg25
I94941
sg26
g31
sg27
I249787
sg28
I5266578
ssS'PEREIRA PAULO V. FERRAZ'
p283
(dp284
g3
g5
sg4
g5
sg6
g31
sg7
I27942
sg8
I00
sg9
I-101250
sg10
g5
sg12
g5
sg13
g31
sg14
g5
sg15
g5
sg16
g5
sg17
g5
sg18
g5
sg19
I101250
sg20
g5
sg21
g5
sg22
g5
sg23
g5
sg24
g5
sg25
g5
sg26
g31
sg27
I27942
sg28
g5
ssS'STABLER FRANK'
p285
(dp286
g3
g5
sg4
g5
sg6
g31
sg7
I16514
sg8
I00
sg9
g5
sg10
S'frank.stabler@enron.com'
p287
sg12
g5
sg13
g31
sg14
g5
sg15
g5
sg16
g5
sg17
g5
sg18
I356071
sg19
g5
sg20
I500000
sg21
I511734
sg22
g5
sg23
g5
sg24
I511734
sg25
I239502
sg26
g31
sg27
I1112087
sg28
g5
ssS'SKILLING JEFFREY K'
p288
(dp289
g3
I3627
sg4
g5
sg6
F0.0242624758753791
sg7
I29336
sg8
I01
sg9
g5
sg10
S'jeff.skilling@enron.com'
p290
sg12
I1920000
sg13
F0.5629997242900469
sg14
g5
sg15
I2042
sg16
g5
sg17
I108
sg18
I22122
sg19
g5
sg20
I5600000
sg21
I26093672
sg22
I88
sg23
I30
sg24
I6843672
sg25
I1111258
sg26
F0.2777777777777778
sg27
I8682716
sg28
I19250000
ssS'BLAKE JR. NORMAN P'
p291
(dp292
g3
g5
sg4
g5
sg6
g31
sg7
I1279
sg8
I00
sg9
I-113784
sg10
g5
sg12
g5
sg13
g31
sg14
g5
sg15
g5
sg16
g5
sg17
g5
sg18
g5
sg19
I113784
sg20
g5
sg21
g5
sg22
g5
sg23
g5
sg24
g5
sg25
g5
sg26
g31
sg27
I1279
sg28
g5
ssS'SHERRICK JEFFREY B'
p293
(dp294
g3
I613
sg4
g5
sg6
F0.0636215334420881
sg7
g5
sg8
I00
sg9
g5
sg10
S'jeffrey.sherrick@enron.com'
p295
sg12
g5
sg13
F0.9510603588907015
sg14
g5
sg15
I583
sg16
g5
sg17
I25
sg18
g5
sg19
g5
sg20
g5
sg21
I1832468
sg22
I39
sg23
I18
sg24
I405999
sg25
g5
sg26
F0.72
sg27
g5
sg28
I1426469
ssS'PRENTICE JAMES'
p296
(dp297
g3
g5
sg4
I564348
sg6
g31
sg7
g5
sg8
I00
sg9
g5
sg10
S'james.prentice@enron.com'
p298
sg12
g5
sg13
g31
sg14
g5
sg15
g5
sg16
g5
sg17
g5
sg18
g5
sg19
g5
sg20
g5
sg21
I1095040
sg22
g5
sg23
g5
sg24
I208809
sg25
g5
sg26
g31
sg27
I564348
sg28
I886231
ssS'GRAY RODNEY'
p299
(dp300
g3
g5
sg4
I93585
sg6
g31
sg7
g5
sg8
I00
sg9
g5
sg10
g5
sg12
I365625
sg13
g31
sg14
g5
sg15
g5
sg16
g5
sg17
g5
sg18
I680833
sg19
g5
sg20
g5
sg21
g5
sg22
g5
sg23
g5
sg24
g5
sg25
I6615
sg26
g31
sg27
I1146658
sg28
g5
ssS'PICKERING MARK R'
p301
(dp302
g3
I898
sg4
g5
sg6
F0.0077951002227171495
sg7
I31653
sg8
I00
sg9
g5
sg10
S'mark.pickering@enron.com'
p303
sg12
g5
sg13
F0.8106904231625836
sg14
g5
sg15
I728
sg16
I400000
sg17
I67
sg18
g5
sg19
g5
sg20
I300000
sg21
I28798
sg22
I7
sg23
I0
sg24
g5
sg25
I655037
sg26
F0.0
sg27
I1386690
sg28
I28798
ssS'NOLES JAMES L'
p304
(dp305
g3
g5
sg4
I774401
sg6
g31
sg7
g5
sg8
I00
sg9
g5
sg10
g5
sg12
g5
sg13
g31
sg14
I-94556
sg15
g5
sg16
g5
sg17
g5
sg18
g5
sg19
g5
sg20
g5
sg21
I368705
sg22
g5
sg23
g5
sg24
I463261
sg25
g5
sg26
g31
sg27
I774401
sg28
g5
ssS'KEAN STEVEN J'
p306
(dp307
g3
I12754
sg4
g5
sg6
F0.010976948408342482
sg7
I41953
sg8
I00
sg9
g5
sg10
S'steven.kean@enron.com'
p308
sg12
I300000
sg13
F0.2853222518425592
sg14
g5
sg15
I3639
sg16
g5
sg17
I6759
sg18
I1231
sg19
g5
sg20
I1000000
sg21
I6153642
sg22
I140
sg23
I387
sg24
I4131594
sg25
I404338
sg26
F0.05725699067909454
sg27
I1747522
sg28
I2022048
ssS'FOWLER PEGGY'
p309
(dp310
g3
I517
sg4
g5
sg6
F0.0
sg7
g5
sg8
I00
sg9
g5
sg10
S'kulvinder.fowler@enron.com'
p311
sg12
g5
sg13
F0.019342359767891684
sg14
g5
sg15
I10
sg16
g5
sg17
I36
sg18
g5
sg19
g5
sg20
g5
sg21
I1884748
sg22
I0
sg23
I0
sg24
I560170
sg25
g5
sg26
F0.0
sg27
g5
sg28
I1324578
ssS'WASAFF GEORGE'
p312
(dp313
g3
I400
sg4
I831299
sg6
F0.055
sg7
g5
sg8
I00
sg9
I-583325
sg10
S'george.wasaff@enron.com'
p314
sg12
I200000
sg13
F0.8425
sg14
g5
sg15
I337
sg16
g5
sg17
I30
sg18
I1425
sg19
g5
sg20
I325000
sg21
I2056427
sg22
I22
sg23
I7
sg24
I388167
sg25
I259996
sg26
F0.23333333333333334
sg27
I1034395
sg28
I1668260
ssS'WHITE JR THOMAS E'
p315
(dp316
g3
g5
sg4
g5
sg6
g31
sg7
I81353
sg8
I00
sg9
g5
sg10
S'thomas.white@enron.com'
p317
sg12
g5
sg13
g31
sg14
g5
sg15
g5
sg16
g5
sg17
g5
sg18
I1085463
sg19
g5
sg20
I450000
sg21
I15144123
sg22
g5
sg23
g5
sg24
I13847074
sg25
I317543
sg26
g31
sg27
I1934359
sg28
I1297049
ssS'CHRISTODOULOU DIOMEDES'
p318
(dp319
g3
g5
sg4
g5
sg6
g31
sg7
g5
sg8
I00
sg9
g5
sg10
S'diomedes.christodoulou@enron.com'
p320
sg12
g5
sg13
g31
sg14
g5
sg15
g5
sg16
g5
sg17
g5
sg18
g5
sg19
g5
sg20
g5
sg21
I6077885
sg22
g5
sg23
g5
sg24
I950730
sg25
g5
sg26
g31
sg27
g5
sg28
I5127155
ssS'ALLEN PHILLIP K'
p321
(dp322
g3
I2902
sg4
I2869717
sg6
F0.016195727084769126
sg7
I13868
sg8
I00
sg9
I-3081055
sg10
S'phillip.allen@enron.com'
p323
sg12
I304805
sg13
F0.4848380427291523
sg14
I-126027
sg15
I1407
sg16
g5
sg17
I2195
sg18
I152
sg19
g5
sg20
I4175000
sg21
I1729541
sg22
I47
sg23
I65
sg24
I126027
sg25
I201955
sg26
F0.029612756264236904
sg27
I4484442
sg28
I1729541
ssS'SHARP VICTORIA T'
p324
(dp325
g3
I3136
sg4
I187469
sg6
F0.007653061224489796
sg7
I116337
sg8
I00
sg9
g5
sg10
S'vicki.sharp@enron.com'
p326
sg12
I422158
sg13
F0.7898596938775511
sg14
g5
sg15
I2477
sg16
g5
sg17
I136
sg18
I2401
sg19
g5
sg20
I600000
sg21
I494136
sg22
I24
sg23
I6
sg24
I213063
sg25
I248146
sg26
F0.04411764705882353
sg27
I1576511
sg28
I281073
ssS'JAEDICKE ROBERT'
p327
(dp328
g3
g5
sg4
g5
sg6
g31
sg7
g5
sg8
I00
sg9
I-25000
sg10
g5
sg12
g5
sg13
g31
sg14
I-44093
sg15
g5
sg16
g5
sg17
g5
sg18
g5
sg19
I108750
sg20
g5
sg21
I431750
sg22
g5
sg23
g5
sg24
I44093
sg25
g5
sg26
g31
sg27
I83750
sg28
I431750
ssS'WINOKUR JR. HERBERT S'
p329
(dp330
g3
g5
sg4
g5
sg6
g31
sg7
I1413
sg8
I00
sg9
I-25000
sg10
g5
sg12
g5
sg13
g31
sg14
g5
sg15
g5
sg16
g5
sg17
g5
sg18
g5
sg19
I108579
sg20
g5
sg21
g5
sg22
g5
sg23
g5
sg24
g5
sg25
g5
sg26
g31
sg27
I84992
sg28
g5
ssS'BROWN MICHAEL'
p331
(dp332
g3
I1486
sg4
g5
sg6
F0.008748317631224764
sg7
I49288
sg8
I00
sg9
g5
sg10
S'michael.brown@enron.com'
p333
sg12
g5
sg13
F0.5121130551816958
sg14
g5
sg15
I761
sg16
g5
sg17
I41
sg18
g5
sg19
g5
sg20
g5
sg21
g5
sg22
I13
sg23
I1
sg24
g5
sg25
g5
sg26
F0.024390243902439025
sg27
I49288
sg28
g5
ssS'BADUM JAMES P'
p334
(dp335
g3
g5
sg4
I178980
sg6
g31
sg7
I3486
sg8
I00
sg9
g5
sg10
g5
sg12
g5
sg13
g31
sg14
g5
sg15
g5
sg16
g5
sg17
g5
sg18
g5
sg19
g5
sg20
g5
sg21
I257817
sg22
g5
sg23
g5
sg24
g5
sg25
g5
sg26
g31
sg27
I182466
sg28
I257817
ssS'HUGHES JAMES A'
p336
(dp337
g3
I719
sg4
g5
sg6
F0.048678720445062586
sg7
g5
sg8
I00
sg9
g5
sg10
S'james.hughes@enron.com'
p338
sg12
g5
sg13
F0.8191933240611962
sg14
g5
sg15
I589
sg16
g5
sg17
I34
sg18
g5
sg19
g5
sg20
g5
sg21
I1118394
sg22
I35
sg23
I5
sg24
I363428
sg25
g5
sg26
F0.14705882352941177
sg27
g5
sg28
I754966
ssS'REYNOLDS LAWRENCE'
p339
(dp340
g3
g5
sg4
I51365
sg6
g31
sg7
I8409
sg8
I00
sg9
I-200000
sg10
g5
sg12
I156250
sg13
g31
sg14
I-140264
sg15
g5
sg16
g5
sg17
g5
sg18
I202052
sg19
g5
sg20
I100000
sg21
I4221891
sg22
g5
sg23
g5
sg24
I201483
sg25
I76399
sg26
g31
sg27
I394475
sg28
I4160672
ssS'DIMICHELE RICHARD G'
p341
(dp342
g3
g5
sg4
g5
sg6
g31
sg7
I35812
sg8
I00
sg9
g5
sg10
S'richard.dimichele@enron.com'
p343
sg12
I694862
sg13
g31
sg14
g5
sg15
g5
sg16
g5
sg17
g5
sg18
I374689
sg19
g5
sg20
I1000000
sg21
I8317782
sg22
g5
sg23
g5
sg24
I126027
sg25
I262788
sg26
g31
sg27
I2368151
sg28
I8191755
ssS'BHATNAGAR SANJAY'
p344
(dp345
g3
I523
sg4
g5
sg6
F0.0
sg7
g5
sg8
I00
sg9
g5
sg10
S'sanjay.bhatnagar@enron.com'
p346
sg12
g5
sg13
F0.8852772466539197
sg14
I15456290
sg15
I463
sg16
g5
sg17
I29
sg18
I137864
sg19
I137864
sg20
g5
sS'total_stock_value'
p347
S'NaN'
p348
sg22
I0
sg23
I1
sg24
I-2604490
sg25
g5
sg26
F0.034482758620689655
sg27
I15456290
sg28
I2604490
ssS'CARTER REBECCA C'
p349
(dp350
g3
I312
sg4
g5
sg6
F0.09294871794871795
sg7
g5
sg8
I00
sg9
I-159792
sg10
S'rebecca.carter@enron.com'
p351
sg12
I75000
sg13
F0.6282051282051282
sg14
I-307301
sg15
I196
sg16
g5
sg17
I15
sg18
I540
sg19
g5
sg20
I300000
sg21
g5
sg22
I29
sg23
I7
sg24
I307301
sg25
I261809
sg26
F0.4666666666666667
sg27
I477557
sg28
g5
ssS'BUCHANAN HAROLD G'
p352
(dp353
g3
I1088
sg4
g5
sg6
F0.0
sg7
I600
sg8
I00
sg9
g5
sg10
S'john.buchanan@enron.com'
p354
sg12
I304805
sg13
F0.021139705882352942
sg14
g5
sg15
I23
sg16
g5
sg17
I125
sg18
I1215
sg19
g5
sg20
I500000
sg21
I1014505
sg22
I0
sg23
I0
sg24
I189041
sg25
I248017
sg26
F0.0
sg27
I1054637
sg28
I825464
ssS'YEAP SOON'
p355
(dp356
g3
g5
sg4
g5
sg6
g31
sg7
I55097
sg8
I00
sg9
g5
sg10
g5
sg12
g5
sg13
g31
sg14
g5
sg15
g5
sg16
g5
sg17
g5
sg18
g5
sg19
g5
sg20
g5
sg21
I192758
sg22
g5
sg23
g5
sg24
g5
sg25
g5
sg26
g31
sg27
I55097
sg28
I192758
ssS'MURRAY JULIA H'
p357
(dp358
g3
I2192
sg4
g5
sg6
F0.005018248175182482
sg7
I57580
sg8
I00
sg9
g5
sg10
S'julia.murray@enron.com'
p359
sg12
I125000
sg13
F0.1802007299270073
sg14
g5
sg15
I395
sg16
g5
sg17
I45
sg18
I330
sg19
g5
sg20
I400000
sg21
I597461
sg22
I11
sg23
I2
sg24
I196983
sg25
I229284
sg26
F0.044444444444444446
sg27
I812194
sg28
I400478
ssS'GARLAND C KEVIN'
p360
(dp361
g3
I209
sg4
g5
sg6
F0.04784688995215311
sg7
I48405
sg8
I00
sg9
g5
sg10
S'kevin.garland@enron.com'
p362
sg12
I375304
sg13
F0.8516746411483254
sg14
g5
sg15
I178
sg16
g5
sg17
I44
sg18
I60814
sg19
g5
sg20
I850000
sg21
I896153
sg22
I10
sg23
I27
sg24
I259907
sg25
I231946
sg26
F0.6136363636363636
sg27
I1566469
sg28
I636246
ssS'DODSON KEITH'
p363
(dp364
g3
I176
sg4
g5
sg6
F0.056818181818181816
sg7
I28164
sg8
I00
sg9
g5
sg10
S'keith.dodson@enron.com'
p365
sg12
g5
sg13
F0.6477272727272727
sg14
g5
sg15
I114
sg16
g5
sg17
I14
sg18
I774
sg19
g5
sg20
I70000
sg21
g5
sg22
I10
sg23
I3
sg24
g5
sg25
I221003
sg26
F0.21428571428571427
sg27
I319941
sg28
g5
ssS'YEAGER F SCOTT'
p366
(dp367
g3
g5
sg4
g5
sg6
g31
sg7
I53947
sg8
I01
sg9
g5
sg10
S'scott.yeager@enron.com'
p368
sg12
g5
sg13
g31
sg14
g5
sg15
g5
sg16
g5
sg17
g5
sg18
I147950
sg19
g5
sg20
g5
sg21
I11884758
sg22
g5
sg23
g5
sg24
I3576206
sg25
I158403
sg26
g31
sg27
I360300
sg28
I8308552
ssS'HIRKO JOSEPH'
p369
(dp370
g3
g5
sg4
I10259
sg6
g31
sg7
I77978
sg8
I01
sg9
g5
sg10
S'joe.hirko@enron.com'
p371
sg12
g5
sg13
g31
sg14
g5
sg15
g5
sg16
g5
sg17
g5
sg18
I2856
sg19
g5
sg20
g5
sg21
I30766064
sg22
g5
sg23
g5
sg24
g5
sg25
g5
sg26
g31
sg27
I91093
sg28
I30766064
ssS'DIETRICH JANET R'
p372
(dp373
g3
I2572
sg4
g5
sg6
F0.11858475894245724
sg7
I3475
sg8
I00
sg9
g5
sg10
S'janet.dietrich@enron.com'
p374
sg12
I556416
sg13
F0.73950233281493
sg14
g5
sg15
I1902
sg16
g5
sg17
I63
sg18
I473
sg19
g5
sg20
I600000
sg21
I1865087
sg22
I305
sg23
I14
sg24
I315068
sg25
I250100
sg26
F0.2222222222222222
sg27
I1410464
sg28
I1550019
ssS'DERRICK JR. JAMES V'
p375
(dp376
g3
I2181
sg4
g5
sg6
F0.029344337459880788
sg7
I51124
sg8
I00
sg9
I-1284000
sg10
S'james.derrick@enron.com'
p377
sg12
I484000
sg13
F0.6423658872077029
sg14
I-1787380
sg15
I1401
sg16
g5
sg17
I909
sg18
I7482
sg19
g5
sg20
I800000
sg21
I8831913
sg22
I64
sg23
I20
sg24
I1787380
sg25
I492375
sg26
F0.022002200220022004
sg27
I550981
sg28
I8831913
ssS'FREVERT MARK A'
p378
(dp379
g3
I3275
sg4
I6426990
sg6
F0.07389312977099237
sg7
I86987
sg8
I00
sg9
I-3367011
sg10
S'mark.frevert@enron.com'
p380
sg12
I1617011
sg13
F0.909618320610687
sg14
g5
sg15
I2979
sg16
I2000000
sg17
I21
sg18
I7427621
sg19
g5
sg20
I2000000
sg21
I14622185
sg22
I242
sg23
I6
sg24
I4188667
sg25
I1060932
sg26
F0.2857142857142857
sg27
I17252530
sg28
I10433518
ssS'PAI LOU L'
p381
(dp382
g3
g5
sg4
g5
sg6
g31
sg7
I32047
sg8
I00
sg9
g5
sg10
S'lou.pai@enron.com'
p383
sg12
g5
sg13
g31
sg14
g5
sg15
g5
sg16
g5
sg17
g5
sg18
I1829457
sg19
g5
sg20
I1000000
sg21
I23817930
sg22
g5
sg23
g5
sg24
I8453763
sg25
I261879
sg26
g31
sg27
I3123383
sg28
I15364167
ssS'BAY FRANKLIN R'
p384
(dp385
g3
g5
sg4
I260455
sg6
g31
sg7
I129142
sg8
I00
sg9
I-201641
sg10
S'frank.bay@enron.com'
p386
sg12
g5
sg13
g31
sg14
I-82782
sg15
g5
sg16
g5
sg17
g5
sg18
I69
sg19
g5
sg20
I400000
sg21
I63014
sg22
g5
sg23
g5
sg24
I145796
sg25
I239671
sg26
g31
sg27
I827696
sg28
g5
ssS'HAYSLETT RODERICK J'
p387
(dp388
g3
I2649
sg4
g5
sg6
F0.01321253303133258
sg7
g5
sg8
I00
sg9
g5
sg10
S'rod.hayslett@enron.com'
p389
sg12
g5
sg13
F0.21555303888259722
sg14
g5
sg15
I571
sg16
g5
sg17
I1061
sg18
g5
sg19
g5
sg20
g5
sg21
I346663
sg22
I35
sg23
I38
sg24
I346663
sg25
g5
sg26
F0.03581526861451461
sg27
g5
sg28
g5
ssS'FUGH JOHN L'
p390
(dp391
g3
g5
sg4
I50591
sg6
g31
sg7
g5
sg8
I00
sg9
g5
sg10
g5
sg12
g5
sg13
g31
sg14
g5
sg15
g5
sg16
g5
sg17
g5
sg18
g5
sg19
g5
sg20
g5
sg21
I176378
sg22
g5
sg23
g5
sg24
g5
sg25
g5
sg26
g31
sg27
I50591
sg28
I176378
ssS'FALLON JAMES B'
p392
(dp393
g3
I1755
sg4
g5
sg6
F0.023931623931623933
sg7
I95924
sg8
I00
sg9
g5
sg10
S'jim.fallon@enron.com'
p394
sg12
I374347
sg13
F0.913960113960114
sg14
g5
sg15
I1604
sg16
g5
sg17
I75
sg18
I401481
sg19
g5
sg20
I2500000
sg21
I2332399
sg22
I42
sg23
I37
sg24
I1392142
sg25
I304588
sg26
F0.49333333333333335
sg27
I3676340
sg28
I940257
ssS'KOENIG MARK E'
p395
(dp396
g3
I2374
sg4
g5
sg6
F0.02232518955349621
sg7
I127017
sg8
I01
sg9
g5
sg10
S'mark.koenig@enron.com'
p397
sg12
I300000
sg13
F0.9566133108677338
sg14
g5
sg15
I2271
sg16
g5
sg17
I61
sg18
I150458
sg19
g5
sg20
I700000
sg21
I1920055
sg22
I53
sg23
I15
sg24
I1248318
sg25
I309946
sg26
F0.2459016393442623
sg27
I1587421
sg28
I671737
ssS'SAVAGE FRANK'
p398
(dp399
g3
g5
sg4
g5
sg6
g31
sg7
g5
sg8
I00
sg9
I-121284
sg10
g5
sg12
g5
sg13
g31
sg14
g5
sg15
g5
sg16
g5
sg17
g5
sg18
g5
sg19
I125034
sg20
g5
sg21
g5
sg22
g5
sg23
g5
sg24
g5
sg25
g5
sg26
g31
sg27
I3750
sg28
g5
ssS'IZZO LAWRENCE L'
p400
(dp401
g3
I496
sg4
g5
sg6
F0.056451612903225805
sg7
I28093
sg8
I00
sg9
g5
sg10
S'larry.izzo@enron.com'
p402
sg12
I312500
sg13
F0.8810483870967742
sg14
g5
sg15
I437
sg16
g5
sg17
I19
sg18
I1553729
sg19
g5
sg20
g5
sg21
I5819980
sg22
I28
sg23
I5
sg24
I3654808
sg25
I85274
sg26
F0.2631578947368421
sg27
I1979596
sg28
I2165172
ssS'TILNEY ELIZABETH A'
p403
(dp404
g3
I460
sg4
g5
sg6
F0.021739130434782608
sg7
g5
sg8
I00
sg9
I-575000
sg10
S'elizabeth.tilney@enron.com'
p405
sg12
I275000
sg13
F0.8239130434782609
sg14
g5
sg15
I379
sg16
g5
sg17
I19
sg18
I152055
sg19
g5
sg20
I300000
sg21
I1168042
sg22
I10
sg23
I11
sg24
I576792
sg25
I247338
sg26
F0.5789473684210527
sg27
I399393
sg28
I591250
ssS'MARTIN AMANDA K'
p406
(dp407
g3
I1522
sg4
I85430
sg6
F0.005256241787122208
sg7
I8211
sg8
I00
sg9
g5
sg10
S'a..martin@enron.com'
p408
sg12
I5145434
sg13
F0.31340341655716164
sg14
g5
sg15
I477
sg16
g5
sg17
I230
sg18
I2818454
sg19
g5
sg20
g5
sg21
I2070306
sg22
I8
sg23
I0
sg24
g5
sg25
I349487
sg26
F0.0
sg27
I8407016
sg28
I2070306
ssS'BUY RICHARD B'
p409
(dp410
g3
I3523
sg4
I649584
sg6
F0.04428044280442804
sg7
g5
sg8
I00
sg9
I-694862
sg10
S'rick.buy@enron.com'
p411
sg12
I769862
sg13
F0.6622196991200682
sg14
g5
sg15
I2333
sg16
g5
sg17
I1053
sg18
I400572
sg19
g5
sg20
I900000
sg21
I3444470
sg22
I156
sg23
I71
sg24
I901657
sg25
I330546
sg26
F0.06742640075973409
sg27
I2355702
sg28
I2542813
ssS'GRAMM WENDY L'
p412
(dp413
g3
g5
sg4
g5
sg6
g31
sg7
g5
sg8
I00
sg9
g5
sg10
g5
sg12
g5
sg13
g31
sg14
g5
sg15
g5
sg16
g5
sg17
g5
sg18
g5
sg19
I119292
sg20
g5
sg21
g5
sg22
g5
sg23
g5
sg24
g5
sg25
g5
sg26
g31
sg27
I119292
sg28
g5
ssS'CAUSEY RICHARD A'
p414
(dp415
g3
I1892
sg4
g5
sg6
F0.0306553911205074
sg7
I30674
sg8
I01
sg9
I-235000
sg10
S'richard.causey@enron.com'
p416
sg12
I350000
sg13
F0.837737843551797
sg14
g5
sg15
I1585
sg16
g5
sg17
I49
sg18
I307895
sg19
g5
sg20
I1000000
sg21
I2502063
sg22
I58
sg23
I12
sg24
I2502063
sg25
I415189
sg26
F0.24489795918367346
sg27
I1868758
sg28
g5
ssS'TAYLOR MITCHELL S'
p417
(dp418
g3
I533
sg4
I227449
sg6
F0.0
sg7
g5
sg8
I00
sg9
g5
sg10
S'mitchell.taylor@enron.com'
p419
sg12
g5
sg13
F0.5628517823639775
sg14
g5
sg15
I300
sg16
g5
sg17
I29
sg18
g5
sg19
g5
sg20
I600000
sg21
I3745048
sg22
I0
sg23
I0
sg24
I563798
sg25
I265214
sg26
F0.0
sg27
I1092663
sg28
I3181250
ssS'DONAHUE JR JEFFREY M'
p420
(dp421
g3
I865
sg4
g5
sg6
F0.21734104046242775
sg7
I96268
sg8
I00
sg9
I-300000
sg10
S'jeff.donahue@enron.com'
p422
sg12
g5
sg13
F0.892485549132948
sg14
g5
sg15
I772
sg16
g5
sg17
I22
sg18
I891
sg19
g5
sg20
I800000
sg21
I1080988
sg22
I188
sg23
I11
sg24
I315068
sg25
I278601
sg26
F0.5
sg27
I875760
sg28
I765920
ssS'GLISAN JR BEN F'
p423
(dp424
g3
I873
sg4
g5
sg6
F0.05956471935853379
sg7
I125978
sg8
I01
sg9
g5
sg10
S'ben.glisan@enron.com'
p425
sg12
I71023
sg13
F1.0011454753722795
sg14
g5
sg15
I874
sg16
g5
sg17
I16
sg18
I200308
sg19
g5
sg20
I600000
sg21
I778546
sg22
I52
sg23
I6
sg24
I393818
sg25
I274975
sg26
F0.375
sg27
I1272284
sg28
I384728
ss.