(lp0
S'poi'
p1
aS'exercised_stock_options'
p2
aS'restricted_stock'
p3
aS'shared_receipt_with_poi'
p4
aS'expenses'
p5
aS'other'
p6
aS'share_shared_receipt_with_poi'
p7
aS'share_from_this_person_to_poi'
p8
a.